; Function Attrs: nounwind uwtable
define ptr @l_Lean_throwErrorAt___at_Lean_Elab_OpenDecl_elabOpenDecl___spec__35___rarg(ptr noundef %0, ptr noundef %1, ptr noundef %2, ptr noundef %3, ptr noundef %4, ptr noundef %5, ptr noundef %6) #0 {
  %8 = getelementptr inbounds nuw i8, ptr %2, i64 8
  %9 = load ptr, ptr %8, align 8, !tbaa !4
  %10 = ptrtoint ptr %9 to i64
  %11 = and i64 %10, 1
  %.not = icmp eq i64 %11, 0
  br i1 %.not, label %12, label %lean_inc.exit22

12:                                               ; preds = %7
  %.val.i = load i32, ptr %9, align 4, !tbaa !8
  %13 = icmp sgt i32 %.val.i, 0
  br i1 %13, label %14, label %16, !prof !11

14:                                               ; preds = %12
  %15 = add nuw i32 %.val.i, 1
  store i32 %15, ptr %9, align 4, !tbaa !8
  br label %lean_inc.exit22

16:                                               ; preds = %12
  %.not.i = icmp eq i32 %.val.i, 0
  br i1 %.not.i, label %lean_inc.exit22, label %17

17:                                               ; preds = %16
  tail call void @lean_inc_ref_cold(ptr noundef nonnull %9) #6
  br label %lean_inc.exit22

lean_inc.exit22:                                  ; preds = %17, %16, %14, %7
  %18 = getelementptr inbounds nuw i8, ptr %0, i64 16
  %19 = load ptr, ptr %18, align 8, !tbaa !4
  %20 = ptrtoint ptr %19 to i64
  %21 = and i64 %20, 1
  %.not26 = icmp eq i64 %21, 0
  br i1 %.not26, label %22, label %lean_inc.exit

22:                                               ; preds = %lean_inc.exit22
  %.val.i23 = load i32, ptr %19, align 4, !tbaa !8
  %23 = icmp sgt i32 %.val.i23, 0
  br i1 %23, label %24, label %26, !prof !11

24:                                               ; preds = %22
  %25 = add nuw i32 %.val.i23, 1
  store i32 %25, ptr %19, align 4, !tbaa !8
  br label %lean_inc.exit

26:                                               ; preds = %22
  %.not.i24 = icmp eq i32 %.val.i23, 0
  br i1 %.not.i24, label %lean_inc.exit, label %27

27:                                               ; preds = %26
  tail call void @lean_inc_ref_cold(ptr noundef nonnull %19) #6
  br label %lean_inc.exit

lean_inc.exit:                                    ; preds = %27, %26, %24, %lean_inc.exit22
  tail call void @lean_inc_heartbeat() #6
  %28 = tail call noalias ptr @mi_malloc_small(i64 noundef 80) #6
  %29 = icmp eq ptr %28, null
  br i1 %29, label %30, label %lean_alloc_closure.exit

30:                                               ; preds = %lean_inc.exit
  tail call void @lean_internal_panic_out_of_memory() #7
  unreachable

lean_alloc_closure.exit:                          ; preds = %lean_inc.exit
  %31 = getelementptr inbounds nuw i8, ptr %28, i64 4
  store i32 1, ptr %28, align 4, !tbaa !8
  store i32 -184549296, ptr %31, align 4
  %32 = getelementptr inbounds nuw i8, ptr %28, i64 8
  store ptr @l_Lean_throwErrorAt___at_Lean_Elab_OpenDecl_elabOpenDecl___spec__35___rarg___lambda__1___boxed, ptr %32, align 8, !tbaa !4
  %33 = getelementptr inbounds nuw i8, ptr %28, i64 16
  store i16 8, ptr %33, align 8, !tbaa !12
  %34 = getelementptr inbounds nuw i8, ptr %28, i64 18
  store i16 7, ptr %34, align 2, !tbaa !12
  %35 = getelementptr inbounds nuw i8, ptr %28, i64 24
  store ptr %4, ptr %35, align 8, !tbaa !4
  %36 = getelementptr inbounds nuw i8, ptr %28, i64 32
  store ptr %0, ptr %36, align 8, !tbaa !4
  %37 = getelementptr inbounds nuw i8, ptr %28, i64 40
  store ptr %1, ptr %37, align 8, !tbaa !4
  %38 = getelementptr inbounds nuw i8, ptr %28, i64 48
  store ptr %2, ptr %38, align 8, !tbaa !4
  %39 = getelementptr inbounds nuw i8, ptr %28, i64 56
  store ptr %3, ptr %39, align 8, !tbaa !4
  %40 = getelementptr inbounds nuw i8, ptr %28, i64 64
  store ptr %5, ptr %40, align 8, !tbaa !4
  %41 = getelementptr inbounds nuw i8, ptr %28, i64 72
  store ptr %6, ptr %41, align 8, !tbaa !4
  %42 = tail call ptr @lean_apply_4(ptr noundef %19, ptr noundef nonnull inttoptr (i64 1 to ptr), ptr noundef nonnull inttoptr (i64 1 to ptr), ptr noundef %9, ptr noundef nonnull %28) #6
  ret ptr %42
}